target datalayout = "e-m:e-p270:32:32-p271:32:32-p272:64:64-i64:64-i128:128-f80:128-n8:16:32:64-S128"
target triple = "x86_64-pc-linux-gnu"

%struct.FreePageManager = type { %union.RelptrFreePageManager, %union.RelptrFreePageBtree, %union.RelptrFreePageSpanLeader, i32, i32, i64, i64, i64, i8, [129 x %union.RelptrFreePageSpanLeader] }
%union.RelptrFreePageManager = type { ptr }
%union.RelptrFreePageBtree = type { ptr }
%union.RelptrFreePageSpanLeader = type { ptr }
%struct.FreePageBtree = type { %struct.FreePageBtreeHeader, %union.anon }
%struct.FreePageBtreeHeader = type { i32, i64, %union.RelptrFreePageBtree }
%union.anon = type { [254 x %struct.FreePageBtreeInternalKey] }
%struct.FreePageBtreeInternalKey = type { i64, %union.RelptrFreePageBtree }
%struct.FreePageBtreeLeafKey = type { i64, i64 }

; Function Attrs: nounwind uwtable
define internal i64 @FreePageBtreeSearchInternal(ptr noundef %0, i64 noundef %1) #0 {
  %3 = alloca i64, align 8
  %4 = alloca ptr, align 8
  %5 = alloca i64, align 8
  %6 = alloca i64, align 8
  %7 = alloca i64, align 8
  %8 = alloca i64, align 8
  %9 = alloca i64, align 8
  %10 = alloca i32, align 4
  store ptr %0, ptr %4, align 8
  store i64 %1, ptr %5, align 8
  call void @llvm.lifetime.start.p0(i64 8, ptr %6) #6
  store i64 0, ptr %6, align 8
  call void @llvm.lifetime.start.p0(i64 8, ptr %7) #6
  %11 = load ptr, ptr %4, align 8
  %12 = getelementptr inbounds nuw %struct.FreePageBtree, ptr %11, i32 0, i32 0
  %13 = getelementptr inbounds nuw %struct.FreePageBtreeHeader, ptr %12, i32 0, i32 1
  %14 = load i64, ptr %13, align 8
  store i64 %14, ptr %7, align 8
  br label %15

15:                                               ; preds = %48, %2
  %16 = load i64, ptr %6, align 8
  %17 = load i64, ptr %7, align 8
  %18 = icmp ult i64 %16, %17
  br i1 %18, label %19, label %49

19:                                               ; preds = %15
  call void @llvm.lifetime.start.p0(i64 8, ptr %8) #6
  %20 = load i64, ptr %6, align 8
  %21 = load i64, ptr %7, align 8
  %22 = add i64 %20, %21
  %23 = udiv i64 %22, 2
  store i64 %23, ptr %8, align 8
  call void @llvm.lifetime.start.p0(i64 8, ptr %9) #6
  %24 = load ptr, ptr %4, align 8
  %25 = getelementptr inbounds nuw %struct.FreePageBtree, ptr %24, i32 0, i32 1
  %26 = load i64, ptr %8, align 8
  %27 = getelementptr inbounds nuw [254 x %struct.FreePageBtreeInternalKey], ptr %25, i64 0, i64 %26
  %28 = getelementptr inbounds nuw %struct.FreePageBtreeInternalKey, ptr %27, i32 0, i32 0
  %29 = load i64, ptr %28, align 8
  store i64 %29, ptr %9, align 8
  %30 = load i64, ptr %5, align 8
  %31 = load i64, ptr %9, align 8
  %32 = icmp eq i64 %30, %31
  br i1 %32, label %33, label %35

33:                                               ; preds = %19
  %34 = load i64, ptr %8, align 8
  store i64 %34, ptr %3, align 8
  store i32 1, ptr %10, align 4
  br label %46

35:                                               ; preds = %19
  %36 = load i64, ptr %5, align 8
  %37 = load i64, ptr %9, align 8
  %38 = icmp ult i64 %36, %37
  br i1 %38, label %39, label %41

39:                                               ; preds = %35
  %40 = load i64, ptr %8, align 8
  store i64 %40, ptr %7, align 8
  br label %44

41:                                               ; preds = %35
  %42 = load i64, ptr %8, align 8
  %43 = add i64 %42, 1
  store i64 %43, ptr %6, align 8
  br label %44

44:                                               ; preds = %41, %39
  br label %45

45:                                               ; preds = %44
  store i32 0, ptr %10, align 4
  br label %46

46:                                               ; preds = %45, %33
  call void @llvm.lifetime.end.p0(i64 8, ptr %9) #6
  call void @llvm.lifetime.end.p0(i64 8, ptr %8) #6
  %47 = load i32, ptr %10, align 4
  switch i32 %47, label %51 [
    i32 0, label %48
  ]

48:                                               ; preds = %46
  br label %15, !llvm.loop !20

49:                                               ; preds = %15
  %50 = load i64, ptr %6, align 8
  store i64 %50, ptr %3, align 8
  store i32 1, ptr %10, align 4
  br label %51

51:                                               ; preds = %49, %46
  call void @llvm.lifetime.end.p0(i64 8, ptr %7) #6
  call void @llvm.lifetime.end.p0(i64 8, ptr %6) #6
  %52 = load i64, ptr %3, align 8
  ret i64 %52
}

; Function Attrs: nounwind uwtable
define internal void @FreePageBtreeAdjustAncestorKeys(ptr noundef %0, ptr noundef %1) #0 {
  %3 = alloca ptr, align 8
  %4 = alloca ptr, align 8
  %5 = alloca ptr, align 8
  %6 = alloca i64, align 8
  %7 = alloca ptr, align 8
  %8 = alloca ptr, align 8
  %9 = alloca i64, align 8
  %10 = alloca i32, align 4
  %11 = alloca i32, align 4
  %12 = alloca ptr, align 8
  %13 = alloca i32, align 4
  store ptr %0, ptr %3, align 8
  store ptr %1, ptr %4, align 8
  call void @llvm.lifetime.start.p0(i64 8, ptr %5) #6
  %14 = load ptr, ptr %3, align 8
  %15 = load ptr, ptr %3, align 8
  %16 = getelementptr inbounds nuw %struct.FreePageManager, ptr %15, i32 0, i32 0
  %17 = load i64, ptr %16, align 8
  %18 = sub i64 %17, 1
  %19 = sub i64 0, %18
  %20 = getelementptr inbounds i8, ptr %14, i64 %19
  store ptr %20, ptr %5, align 8
  call void @llvm.lifetime.start.p0(i64 8, ptr %6) #6
  call void @llvm.lifetime.start.p0(i64 8, ptr %7) #6
  call void @llvm.lifetime.start.p0(i64 8, ptr %8) #6
  %21 = load ptr, ptr %4, align 8
  %22 = getelementptr inbounds nuw %struct.FreePageBtree, ptr %21, i32 0, i32 0
  %23 = getelementptr inbounds nuw %struct.FreePageBtreeHeader, ptr %22, i32 0, i32 0
  %24 = load i32, ptr %23, align 8
  %25 = icmp eq i32 %24, -1729435864
  br i1 %25, label %26, label %32

26:                                               ; preds = %2
  %27 = load ptr, ptr %4, align 8
  %28 = getelementptr inbounds nuw %struct.FreePageBtree, ptr %27, i32 0, i32 1
  %29 = getelementptr inbounds [254 x %struct.FreePageBtreeLeafKey], ptr %28, i64 0, i64 0
  %30 = getelementptr inbounds nuw %struct.FreePageBtreeLeafKey, ptr %29, i32 0, i32 0
  %31 = load i64, ptr %30, align 8
  store i64 %31, ptr %6, align 8
  br label %38

32:                                               ; preds = %2
  %33 = load ptr, ptr %4, align 8
  %34 = getelementptr inbounds nuw %struct.FreePageBtree, ptr %33, i32 0, i32 1
  %35 = getelementptr inbounds [254 x %struct.FreePageBtreeInternalKey], ptr %34, i64 0, i64 0
  %36 = getelementptr inbounds nuw %struct.FreePageBtreeInternalKey, ptr %35, i32 0, i32 0
  %37 = load i64, ptr %36, align 8
  store i64 %37, ptr %6, align 8
  br label %38

38:                                               ; preds = %32, %26
  %39 = load ptr, ptr %4, align 8
  store ptr %39, ptr %8, align 8
  br label %40

40:                                               ; preds = %121, %38
  call void @llvm.lifetime.start.p0(i64 8, ptr %9) #6
  br label %41

41:                                               ; preds = %40
  br label %42

42:                                               ; preds = %41
  br label %43

43:                                               ; preds = %42
  store i32 1, ptr %10, align 4
  %44 = load ptr, ptr %8, align 8
  %45 = getelementptr inbounds nuw %struct.FreePageBtree, ptr %44, i32 0, i32 0
  %46 = getelementptr inbounds nuw %struct.FreePageBtreeHeader, ptr %45, i32 0, i32 2
  %47 = load i64, ptr %46, align 8
  %48 = icmp eq i64 %47, 0
  br i1 %48, label %49, label %50

49:                                               ; preds = %43
  br label %58

50:                                               ; preds = %43
  %51 = load ptr, ptr %5, align 8
  %52 = load ptr, ptr %8, align 8
  %53 = getelementptr inbounds nuw %struct.FreePageBtree, ptr %52, i32 0, i32 0
  %54 = getelementptr inbounds nuw %struct.FreePageBtreeHeader, ptr %53, i32 0, i32 2
  %55 = load i64, ptr %54, align 8
  %56 = getelementptr inbounds nuw i8, ptr %51, i64 %55
  %57 = getelementptr inbounds i8, ptr %56, i64 -1
  br label %58

58:                                               ; preds = %50, %49
  %59 = phi ptr [ null, %49 ], [ %57, %50 ]
  store ptr %59, ptr %7, align 8
  %60 = load ptr, ptr %7, align 8
  %61 = icmp eq ptr %60, null
  br i1 %61, label %62, label %63

62:                                               ; preds = %58
  store i32 2, ptr %11, align 4
  br label %119

63:                                               ; preds = %58
  %64 = load ptr, ptr %7, align 8
  %65 = load i64, ptr %6, align 8
  %66 = call i64 @FreePageBtreeSearchInternal(ptr noundef %64, i64 noundef %65)
  store i64 %66, ptr %9, align 8
  %67 = load i64, ptr %9, align 8
  %68 = load ptr, ptr %7, align 8
  %69 = getelementptr inbounds nuw %struct.FreePageBtree, ptr %68, i32 0, i32 0
  %70 = getelementptr inbounds nuw %struct.FreePageBtreeHeader, ptr %69, i32 0, i32 1
  %71 = load i64, ptr %70, align 8
  %72 = icmp uge i64 %67, %71
  br i1 %72, label %73, label %76

73:                                               ; preds = %63
  %74 = load i64, ptr %9, align 8
  %75 = add i64 %74, -1
  store i64 %75, ptr %9, align 8
  br label %107

76:                                               ; preds = %63
  call void @llvm.lifetime.start.p0(i64 8, ptr %12) #6
  br label %77

77:                                               ; preds = %76
  br label %78

78:                                               ; preds = %77
  br label %79

79:                                               ; preds = %78
  store i32 1, ptr %13, align 4
  %80 = load ptr, ptr %7, align 8
  %81 = getelementptr inbounds nuw %struct.FreePageBtree, ptr %80, i32 0, i32 1
  %82 = load i64, ptr %9, align 8
  %83 = getelementptr inbounds nuw [254 x %struct.FreePageBtreeInternalKey], ptr %81, i64 0, i64 %82
  %84 = getelementptr inbounds nuw %struct.FreePageBtreeInternalKey, ptr %83, i32 0, i32 1
  %85 = load i64, ptr %84, align 8
  %86 = icmp eq i64 %85, 0
  br i1 %86, label %87, label %88

87:                                               ; preds = %79
  br label %98

88:                                               ; preds = %79
  %89 = load ptr, ptr %5, align 8
  %90 = load ptr, ptr %7, align 8
  %91 = getelementptr inbounds nuw %struct.FreePageBtree, ptr %90, i32 0, i32 1
  %92 = load i64, ptr %9, align 8
  %93 = getelementptr inbounds nuw [254 x %struct.FreePageBtreeInternalKey], ptr %91, i64 0, i64 %92
  %94 = getelementptr inbounds nuw %struct.FreePageBtreeInternalKey, ptr %93, i32 0, i32 1
  %95 = load i64, ptr %94, align 8
  %96 = getelementptr inbounds nuw i8, ptr %89, i64 %95
  %97 = getelementptr inbounds i8, ptr %96, i64 -1
  br label %98

98:                                               ; preds = %88, %87
  %99 = phi ptr [ null, %87 ], [ %97, %88 ]
  store ptr %99, ptr %12, align 8
  %100 = load ptr, ptr %12, align 8
  %101 = load ptr, ptr %8, align 8
  %102 = icmp ne ptr %100, %101
  br i1 %102, label %103, label %106

103:                                              ; preds = %98
  %104 = load i64, ptr %9, align 8
  %105 = add i64 %104, -1
  store i64 %105, ptr %9, align 8
  br label %106

106:                                              ; preds = %103, %98
  call void @llvm.lifetime.end.p0(i64 8, ptr %12) #6
  br label %107

107:                                              ; preds = %106, %73
  %108 = load i64, ptr %6, align 8
  %109 = load ptr, ptr %7, align 8
  %110 = getelementptr inbounds nuw %struct.FreePageBtree, ptr %109, i32 0, i32 1
  %111 = load i64, ptr %9, align 8
  %112 = getelementptr inbounds nuw [254 x %struct.FreePageBtreeInternalKey], ptr %110, i64 0, i64 %111
  %113 = getelementptr inbounds nuw %struct.FreePageBtreeInternalKey, ptr %112, i32 0, i32 0
  store i64 %108, ptr %113, align 8
  %114 = load i64, ptr %9, align 8
  %115 = icmp ugt i64 %114, 0
  br i1 %115, label %116, label %117

116:                                              ; preds = %107
  store i32 2, ptr %11, align 4
  br label %119

117:                                              ; preds = %107
  %118 = load ptr, ptr %7, align 8
  store ptr %118, ptr %8, align 8
  store i32 0, ptr %11, align 4
  br label %119

119:                                              ; preds = %117, %116, %62
  call void @llvm.lifetime.end.p0(i64 8, ptr %9) #6
  %120 = load i32, ptr %11, align 4
  switch i32 %120, label %123 [
    i32 0, label %121
    i32 2, label %122
  ]

121:                                              ; preds = %119
  br label %40

122:                                              ; preds = %119
  call void @llvm.lifetime.end.p0(i64 8, ptr %8) #6
  call void @llvm.lifetime.end.p0(i64 8, ptr %7) #6
  call void @llvm.lifetime.end.p0(i64 8, ptr %6) #6
  call void @llvm.lifetime.end.p0(i64 8, ptr %5) #6
  ret void

123:                                              ; preds = %119
  unreachable
}

; Function Attrs: nounwind uwtable
define internal void @FreePageBtreeRemove(ptr noundef %0, ptr noundef %1, i64 noundef %2) #0 {
  %4 = alloca ptr, align 8
  %5 = alloca ptr, align 8
  %6 = alloca i64, align 8
  store ptr %0, ptr %4, align 8
  store ptr %1, ptr %5, align 8
  store i64 %2, ptr %6, align 8
  %7 = load ptr, ptr %5, align 8
  %8 = getelementptr inbounds nuw %struct.FreePageBtree, ptr %7, i32 0, i32 0
  %9 = getelementptr inbounds nuw %struct.FreePageBtreeHeader, ptr %8, i32 0, i32 1
  %10 = load i64, ptr %9, align 8
  %11 = icmp eq i64 %10, 1
  br i1 %11, label %12, label %15

12:                                               ; preds = %3
  %13 = load ptr, ptr %4, align 8
  %14 = load ptr, ptr %5, align 8
  call void @FreePageBtreeRemovePage(ptr noundef %13, ptr noundef %14)
  br label %53

15:                                               ; preds = %3
  %16 = load ptr, ptr %5, align 8
  %17 = getelementptr inbounds nuw %struct.FreePageBtree, ptr %16, i32 0, i32 0
  %18 = getelementptr inbounds nuw %struct.FreePageBtreeHeader, ptr %17, i32 0, i32 1
  %19 = load i64, ptr %18, align 8
  %20 = add i64 %19, -1
  store i64 %20, ptr %18, align 8
  %21 = load i64, ptr %6, align 8
  %22 = load ptr, ptr %5, align 8
  %23 = getelementptr inbounds nuw %struct.FreePageBtree, ptr %22, i32 0, i32 0
  %24 = getelementptr inbounds nuw %struct.FreePageBtreeHeader, ptr %23, i32 0, i32 1
  %25 = load i64, ptr %24, align 8
  %26 = icmp ult i64 %21, %25
  br i1 %26, label %27, label %44

27:                                               ; preds = %15
  %28 = load ptr, ptr %5, align 8
  %29 = getelementptr inbounds nuw %struct.FreePageBtree, ptr %28, i32 0, i32 1
  %30 = load i64, ptr %6, align 8
  %31 = getelementptr inbounds nuw [254 x %struct.FreePageBtreeLeafKey], ptr %29, i64 0, i64 %30
  %32 = load ptr, ptr %5, align 8
  %33 = getelementptr inbounds nuw %struct.FreePageBtree, ptr %32, i32 0, i32 1
  %34 = load i64, ptr %6, align 8
  %35 = add i64 %34, 1
  %36 = getelementptr inbounds nuw [254 x %struct.FreePageBtreeLeafKey], ptr %33, i64 0, i64 %35
  %37 = load ptr, ptr %5, align 8
  %38 = getelementptr inbounds nuw %struct.FreePageBtree, ptr %37, i32 0, i32 0
  %39 = getelementptr inbounds nuw %struct.FreePageBtreeHeader, ptr %38, i32 0, i32 1
  %40 = load i64, ptr %39, align 8
  %41 = load i64, ptr %6, align 8
  %42 = sub i64 %40, %41
  %43 = mul i64 16, %42
  call void @llvm.memmove.p0.p0.i64(ptr align 8 %31, ptr align 8 %36, i64 %43, i1 false)
  br label %44

44:                                               ; preds = %27, %15
  %45 = load i64, ptr %6, align 8
  %46 = icmp eq i64 %45, 0
  br i1 %46, label %47, label %50

47:                                               ; preds = %44
  %48 = load ptr, ptr %4, align 8
  %49 = load ptr, ptr %5, align 8
  call void @FreePageBtreeAdjustAncestorKeys(ptr noundef %48, ptr noundef %49)
  br label %50

50:                                               ; preds = %47, %44
  %51 = load ptr, ptr %4, align 8
  %52 = load ptr, ptr %5, align 8
  call void @FreePageBtreeConsolidate(ptr noundef %51, ptr noundef %52)
  br label %53

53:                                               ; preds = %50, %12
  ret void
}