; Function Attrs: nofree nosync nounwind memory(readwrite, inaccessiblemem: none) uwtable
define internal fastcc void @FreePageBtreeRemove(ptr noundef %0, ptr noundef %1, i64 noundef %2) unnamed_addr #3 {
  %4 = getelementptr inbounds nuw i8, ptr %1, i64 8
  %5 = load i64, ptr %4, align 8
  %6 = icmp eq i64 %5, 1
  br i1 %6, label %7, label %8

7:                                                ; preds = %3
  tail call fastcc void @FreePageBtreeRemovePage(ptr noundef %0, ptr noundef nonnull %1)
  br label %52

8:                                                ; preds = %3
  %9 = add i64 %5, -1
  store i64 %9, ptr %4, align 8
  %10 = icmp ult i64 %2, %9
  br i1 %10, label %11, label %FreePageBtreeAdjustAncestorKeys.exit

11:                                               ; preds = %8
  %12 = getelementptr inbounds nuw i8, ptr %1, i64 24
  %13 = getelementptr inbounds nuw [254 x %struct.FreePageBtreeLeafKey], ptr %12, i64 0, i64 %2
  %14 = add nuw i64 %2, 1
  %15 = getelementptr inbounds nuw [254 x %struct.FreePageBtreeLeafKey], ptr %12, i64 0, i64 %14
  %16 = sub nuw i64 %9, %2
  %17 = shl i64 %16, 4
  tail call void @llvm.memmove.p0.p0.i64(ptr nonnull align 8 %13, ptr nonnull align 8 %15, i64 %17, i1 false)
  %18 = icmp eq i64 %2, 0
  br i1 %18, label %19, label %FreePageBtreeAdjustAncestorKeys.exit

19:                                               ; preds = %11
  %20 = load i64, ptr %0, align 8
  %21 = sub i64 1, %20
  %22 = getelementptr inbounds i8, ptr %0, i64 %21
  %.0.i = load i64, ptr %12, align 8
  %invariant.gep.i = getelementptr i8, ptr %22, i64 -1
  br label %23

23:                                               ; preds = %50, %19
  %.028.i = phi ptr [ %1, %19 ], [ %29, %50 ]
  %24 = getelementptr inbounds nuw i8, ptr %.028.i, i64 16
  %25 = load i64, ptr %24, align 8
  %26 = icmp eq i64 %25, 0
  %27 = getelementptr inbounds nuw i8, ptr %22, i64 %25
  %28 = getelementptr inbounds i8, ptr %27, i64 -1
  %29 = select i1 %26, ptr null, ptr %28
  br i1 %26, label %FreePageBtreeAdjustAncestorKeys.exit, label %30

30:                                               ; preds = %23
  %31 = getelementptr inbounds nuw i8, ptr %27, i64 7
  %32 = load i64, ptr %31, align 8
  %33 = getelementptr inbounds nuw i8, ptr %27, i64 23
  br label %34

34:                                               ; preds = %36, %30
  %.020.i.i = phi i64 [ %32, %30 ], [ %.222.i.i, %36 ]
  %.017.i.i = phi i64 [ 0, %30 ], [ %.219.i.i, %36 ]
  %35 = icmp ult i64 %.017.i.i, %.020.i.i
  br i1 %35, label %36, label %FreePageBtreeSearchInternal.exit.i

36:                                               ; preds = %34
  %37 = add i64 %.017.i.i, %.020.i.i
  %38 = lshr i64 %37, 1
  %39 = getelementptr inbounds nuw [254 x %struct.FreePageBtreeInternalKey], ptr %33, i64 0, i64 %38
  %40 = load i64, ptr %39, align 8
  %.not.i.i = icmp eq i64 %.0.i, %40
  %41 = icmp ult i64 %.0.i, %40
  %42 = add nuw i64 %38, 1
  %.222.i.i = select i1 %41, i64 %38, i64 %.020.i.i
  %.219.i.i = select i1 %41, i64 %.017.i.i, i64 %42
  br i1 %.not.i.i, label %FreePageBtreeSearchInternal.exit.i, label %34, !llvm.loop !11

FreePageBtreeSearchInternal.exit.i:               ; preds = %36, %34
  %.2.i.i = phi i64 [ %38, %36 ], [ %.017.i.i, %34 ]
  %.not.i = icmp ult i64 %.2.i.i, %32
  br i1 %.not.i, label %43, label %50

43:                                               ; preds = %FreePageBtreeSearchInternal.exit.i
  %.idx.i = shl nuw nsw i64 %.2.i.i, 4
  %44 = getelementptr i8, ptr %29, i64 32
  %45 = getelementptr i8, ptr %44, i64 %.idx.i
  %46 = load i64, ptr %45, align 8
  %47 = icmp eq i64 %46, 0
  %gep.i = getelementptr i8, ptr %invariant.gep.i, i64 %46
  %48 = select i1 %47, ptr null, ptr %gep.i
  %.not37.i = icmp ne ptr %48, %.028.i
  %49 = sext i1 %.not37.i to i64
  br label %50

50:                                               ; preds = %43, %FreePageBtreeSearchInternal.exit.i
  %.sink.i = phi i64 [ %49, %43 ], [ -1, %FreePageBtreeSearchInternal.exit.i ]
  %.131.i = add i64 %.sink.i, %.2.i.i
  %51 = getelementptr inbounds nuw [254 x %struct.FreePageBtreeInternalKey], ptr %33, i64 0, i64 %.131.i
  store i64 %.0.i, ptr %51, align 8
  %.not38.i = icmp eq i64 %.131.i, 0
  br i1 %.not38.i, label %23, label %FreePageBtreeAdjustAncestorKeys.exit

FreePageBtreeAdjustAncestorKeys.exit:             ; preds = %50, %23, %8, %11
  tail call fastcc void @FreePageBtreeConsolidate(ptr noundef %0, ptr noundef %1)
  br label %52

52:                                               ; preds = %FreePageBtreeAdjustAncestorKeys.exit, %7
  ret void
}